; Function Attrs: mustprogress nofree norecurse nosync nounwind null_pointer_is_valid sspstrong willreturn memory(argmem: read) uwtable
define internal i32 @_9p_hash_hash(ptr noundef readonly captures(none) %0) #3 {
  %2 = load i32, ptr %0, align 4
  %3 = getelementptr inbounds nuw i8, ptr %0, i64 4
  %4 = load i16, ptr %3, align 4
  %5 = zext i16 %4 to i32
  %6 = xor i32 %2, %5
  %7 = getelementptr inbounds nuw i8, ptr %0, i64 8
  %8 = load i32, ptr %7, align 4
  %9 = xor i32 %6, %8
  ret i32 %9
}